; Function Attrs: null_pointer_is_valid sspstrong uwtable
define internal fastcc i32 @mysql_field_add_lestring(ptr noundef %0, i32 noundef %1, ptr noundef %2, i32 noundef %3, i32 noundef %4) unnamed_addr #0 {
  %6 = alloca ptr, align 8
  call void @llvm.lifetime.start.p0(i64 8, ptr nonnull %6) #10
  %7 = tail call ptr @proto_registrar_get_nth(i32 noundef %3)
  %.not = icmp eq ptr %7, null
  br i1 %.not, label %8, label %9

8:                                                ; preds = %5
  tail call void (ptr, ...) @proto_report_dissector_bug(ptr noundef nonnull @.str.1274, ptr noundef nonnull @.str.1275, i32 noundef 3650, ptr noundef nonnull @.str.1276) #12
  unreachable

9:                                                ; preds = %5
  %10 = load i32, ptr @ett_mysql_field, align 4
  %11 = load ptr, ptr %7, align 8
  %12 = call ptr (ptr, ptr, i32, i32, i32, ptr, ptr, ...) @proto_tree_add_subtree_format(ptr noundef %2, ptr noundef %0, i32 noundef %1, i32 noundef -1, i32 noundef %10, ptr noundef nonnull %6, ptr noundef nonnull @.str.1277, ptr noundef %11)
  %13 = call zeroext i8 @tvb_get_uint8(ptr noundef %0, i32 noundef %1)
  switch i8 %13, label %25 [
    i8 -5, label %28
    i8 -4, label %14
    i8 -3, label %18
    i8 -2, label %22
  ]

14:                                               ; preds = %9
  %15 = add i32 %1, 1
  %16 = call zeroext i16 @tvb_get_uint16(ptr noundef %0, i32 noundef %15, i32 noundef -2147483648)
  %17 = zext i16 %16 to i64
  br label %31

18:                                               ; preds = %9
  %19 = add i32 %1, 1
  %20 = call i32 @tvb_get_uint24(ptr noundef %0, i32 noundef %19, i32 noundef -2147483648)
  %21 = zext i32 %20 to i64
  br label %31

22:                                               ; preds = %9
  %23 = add i32 %1, 1
  %24 = call i64 @tvb_get_uint64(ptr noundef %0, i32 noundef %23, i32 noundef -2147483648)
  br label %31

25:                                               ; preds = %9
  %26 = call zeroext i8 @tvb_get_uint8(ptr noundef %0, i32 noundef %1)
  %27 = zext i8 %26 to i64
  br label %31

28:                                               ; preds = %9
  %29 = add i32 %1, 1
  %30 = call ptr @proto_tree_add_string(ptr noundef %12, i32 noundef %3, ptr noundef %0, i32 noundef %29, i32 noundef 0, ptr noundef nonnull @.str.1278)
  br label %39

31:                                               ; preds = %25, %22, %18, %14
  %.032.ph = phi i64 [ %17, %14 ], [ %21, %18 ], [ %24, %22 ], [ %27, %25 ]
  %.025.i.ph = phi i32 [ 3, %14 ], [ 4, %18 ], [ 9, %22 ], [ 1, %25 ]
  %32 = add i32 %.025.i.ph, %1
  %33 = trunc i64 %.032.ph to i32
  %34 = call ptr @proto_tree_add_item(ptr noundef %12, i32 noundef %3, ptr noundef %0, i32 noundef %32, i32 noundef %33, i32 noundef %4)
  %35 = add i32 %32, %33
  %36 = icmp slt i32 %35, %32
  br i1 %36, label %37, label %39

37:                                               ; preds = %31
  %38 = call i32 @tvb_reported_length(ptr noundef %0)
  br label %39

39:                                               ; preds = %31, %37, %28
  %.0 = phi i32 [ %29, %28 ], [ %38, %37 ], [ %35, %31 ]
  %40 = load ptr, ptr %6, align 8
  %41 = sub i32 %.0, %1
  call void @proto_item_set_len(ptr noundef %40, i32 noundef %41)
  call void @llvm.lifetime.end.p0(i64 8, ptr nonnull %6) #10
  ret i32 %.0
}